target datalayout = "e-m:e-p270:32:32-p271:32:32-p272:64:64-i64:64-i128:128-f80:128-n8:16:32:64-S128"
target triple = "x86_64-pc-linux-gnu"

%struct.yy_buffer_state = type { ptr, ptr, ptr, i32, i32, i32, i32, i32, i32, i32, i32, i32 }

@.str.2 = private unnamed_addr constant [42 x i8] c"out of dynamic memory in yy_scan_buffer()\00", align 1
@.str.3 = private unnamed_addr constant [41 x i8] c"out of dynamic memory in yy_scan_bytes()\00", align 1
@.str.4 = private unnamed_addr constant [30 x i8] c"bad buffer in yy_scan_bytes()\00", align 1

; Function Attrs: mustprogress uwtable
define dso_local noundef ptr @_Z24cmFortran_yy_scan_bufferPcmPv(ptr noundef %0, i64 noundef %1, ptr noundef %2) #0 {
  %4 = alloca ptr, align 8
  %5 = alloca ptr, align 8
  %6 = alloca i64, align 8
  %7 = alloca ptr, align 8
  %8 = alloca ptr, align 8
  %9 = alloca i32, align 4
  store ptr %0, ptr %5, align 8, !tbaa !30
  store i64 %1, ptr %6, align 8, !tbaa !55
  store ptr %2, ptr %7, align 8, !tbaa !9
  call void @llvm.lifetime.start.p0(i64 8, ptr %8) #12
  %10 = load i64, ptr %6, align 8, !tbaa !55
  %11 = icmp ult i64 %10, 2
  br i1 %11, label %28, label %12

12:                                               ; preds = %3
  %13 = load ptr, ptr %5, align 8, !tbaa !30
  %14 = load i64, ptr %6, align 8, !tbaa !55
  %15 = sub i64 %14, 2
  %16 = getelementptr inbounds nuw i8, ptr %13, i64 %15
  %17 = load i8, ptr %16, align 1, !tbaa !32
  %18 = sext i8 %17 to i32
  %19 = icmp ne i32 %18, 0
  br i1 %19, label %28, label %20

20:                                               ; preds = %12
  %21 = load ptr, ptr %5, align 8, !tbaa !30
  %22 = load i64, ptr %6, align 8, !tbaa !55
  %23 = sub i64 %22, 1
  %24 = getelementptr inbounds nuw i8, ptr %21, i64 %23
  %25 = load i8, ptr %24, align 1, !tbaa !32
  %26 = sext i8 %25 to i32
  %27 = icmp ne i32 %26, 0
  br i1 %27, label %28, label %29

28:                                               ; preds = %20, %12, %3
  store ptr null, ptr %4, align 8
  store i32 1, ptr %9, align 4
  br label %67

29:                                               ; preds = %20
  %30 = load ptr, ptr %7, align 8, !tbaa !9
  %31 = call noundef ptr @_Z17cmFortran_yyallocmPv(i64 noundef 64, ptr noundef %30)
  store ptr %31, ptr %8, align 8, !tbaa !27
  %32 = load ptr, ptr %8, align 8, !tbaa !27
  %33 = icmp ne ptr %32, null
  br i1 %33, label %36, label %34

34:                                               ; preds = %29
  %35 = load ptr, ptr %7, align 8, !tbaa !9
  call void @_ZL14yy_fatal_errorPKcPv(ptr noundef @.str.2, ptr noundef %35) #14
  unreachable

36:                                               ; preds = %29
  %37 = load i64, ptr %6, align 8, !tbaa !55
  %38 = sub i64 %37, 2
  %39 = trunc i64 %38 to i32
  %40 = load ptr, ptr %8, align 8, !tbaa !27
  %41 = getelementptr inbounds nuw %struct.yy_buffer_state, ptr %40, i32 0, i32 3
  store i32 %39, ptr %41, align 8, !tbaa !57
  %42 = load ptr, ptr %5, align 8, !tbaa !30
  %43 = load ptr, ptr %8, align 8, !tbaa !27
  %44 = getelementptr inbounds nuw %struct.yy_buffer_state, ptr %43, i32 0, i32 1
  store ptr %42, ptr %44, align 8, !tbaa !52
  %45 = load ptr, ptr %8, align 8, !tbaa !27
  %46 = getelementptr inbounds nuw %struct.yy_buffer_state, ptr %45, i32 0, i32 2
  store ptr %42, ptr %46, align 8, !tbaa !59
  %47 = load ptr, ptr %8, align 8, !tbaa !27
  %48 = getelementptr inbounds nuw %struct.yy_buffer_state, ptr %47, i32 0, i32 5
  store i32 0, ptr %48, align 8, !tbaa !58
  %49 = load ptr, ptr %8, align 8, !tbaa !27
  %50 = getelementptr inbounds nuw %struct.yy_buffer_state, ptr %49, i32 0, i32 0
  store ptr null, ptr %50, align 8, !tbaa !51
  %51 = load ptr, ptr %8, align 8, !tbaa !27
  %52 = getelementptr inbounds nuw %struct.yy_buffer_state, ptr %51, i32 0, i32 3
  %53 = load i32, ptr %52, align 8, !tbaa !57
  %54 = load ptr, ptr %8, align 8, !tbaa !27
  %55 = getelementptr inbounds nuw %struct.yy_buffer_state, ptr %54, i32 0, i32 4
  store i32 %53, ptr %55, align 4, !tbaa !49
  %56 = load ptr, ptr %8, align 8, !tbaa !27
  %57 = getelementptr inbounds nuw %struct.yy_buffer_state, ptr %56, i32 0, i32 6
  store i32 0, ptr %57, align 4, !tbaa !69
  %58 = load ptr, ptr %8, align 8, !tbaa !27
  %59 = getelementptr inbounds nuw %struct.yy_buffer_state, ptr %58, i32 0, i32 7
  store i32 1, ptr %59, align 8, !tbaa !34
  %60 = load ptr, ptr %8, align 8, !tbaa !27
  %61 = getelementptr inbounds nuw %struct.yy_buffer_state, ptr %60, i32 0, i32 10
  store i32 0, ptr %61, align 4, !tbaa !64
  %62 = load ptr, ptr %8, align 8, !tbaa !27
  %63 = getelementptr inbounds nuw %struct.yy_buffer_state, ptr %62, i32 0, i32 11
  store i32 0, ptr %63, align 8, !tbaa !48
  %64 = load ptr, ptr %8, align 8, !tbaa !27
  %65 = load ptr, ptr %7, align 8, !tbaa !9
  call void @_Z29cmFortran_yy_switch_to_bufferP15yy_buffer_statePv(ptr noundef %64, ptr noundef %65)
  %66 = load ptr, ptr %8, align 8, !tbaa !27
  store ptr %66, ptr %4, align 8
  store i32 1, ptr %9, align 4
  br label %67

67:                                               ; preds = %36, %28
  call void @llvm.lifetime.end.p0(i64 8, ptr %8) #12
  %68 = load ptr, ptr %4, align 8
  ret ptr %68
}

; Function Attrs: mustprogress nounwind uwtable
define dso_local noundef ptr @_Z17cmFortran_yyallocmPv(i64 noundef %0, ptr noundef %1) #2 {
  %3 = alloca i64, align 8
  %4 = alloca ptr, align 8
  %5 = alloca ptr, align 8
  store i64 %0, ptr %3, align 8, !tbaa !55
  store ptr %1, ptr %4, align 8, !tbaa !9
  call void @llvm.lifetime.start.p0(i64 8, ptr %5) #12
  %6 = load ptr, ptr %4, align 8, !tbaa !9
  store ptr %6, ptr %5, align 8, !tbaa !10
  %7 = load i64, ptr %3, align 8, !tbaa !55
  %8 = call noalias ptr @malloc(i64 noundef %7) #17
  call void @llvm.lifetime.end.p0(i64 8, ptr %5) #12
  ret ptr %8
}

; Function Attrs: mustprogress uwtable
define dso_local noundef ptr @_Z23cmFortran_yy_scan_bytesPKciPv(ptr noundef %0, i32 noundef %1, ptr noundef %2) #0 {
  %4 = alloca ptr, align 8
  %5 = alloca i32, align 4
  %6 = alloca ptr, align 8
  %7 = alloca ptr, align 8
  %8 = alloca ptr, align 8
  %9 = alloca i64, align 8
  %10 = alloca i32, align 4
  store ptr %0, ptr %4, align 8, !tbaa !30
  store i32 %1, ptr %5, align 4, !tbaa !33
  store ptr %2, ptr %6, align 8, !tbaa !9
  call void @llvm.lifetime.start.p0(i64 8, ptr %7) #12
  call void @llvm.lifetime.start.p0(i64 8, ptr %8) #12
  call void @llvm.lifetime.start.p0(i64 8, ptr %9) #12
  call void @llvm.lifetime.start.p0(i64 4, ptr %10) #12
  %11 = load i32, ptr %5, align 4, !tbaa !33
  %12 = add nsw i32 %11, 2
  %13 = sext i32 %12 to i64
  store i64 %13, ptr %9, align 8, !tbaa !55
  %14 = load i64, ptr %9, align 8, !tbaa !55
  %15 = load ptr, ptr %6, align 8, !tbaa !9
  %16 = call noundef ptr @_Z17cmFortran_yyallocmPv(i64 noundef %14, ptr noundef %15)
  store ptr %16, ptr %8, align 8, !tbaa !30
  %17 = load ptr, ptr %8, align 8, !tbaa !30
  %18 = icmp ne ptr %17, null
  br i1 %18, label %21, label %19

19:                                               ; preds = %3
  %20 = load ptr, ptr %6, align 8, !tbaa !9
  call void @_ZL14yy_fatal_errorPKcPv(ptr noundef @.str.3, ptr noundef %20) #14
  unreachable

21:                                               ; preds = %3
  store i32 0, ptr %10, align 4, !tbaa !33
  br label %22

22:                                               ; preds = %36, %21
  %23 = load i32, ptr %10, align 4, !tbaa !33
  %24 = load i32, ptr %5, align 4, !tbaa !33
  %25 = icmp slt i32 %23, %24
  br i1 %25, label %26, label %39

26:                                               ; preds = %22
  %27 = load ptr, ptr %4, align 8, !tbaa !30
  %28 = load i32, ptr %10, align 4, !tbaa !33
  %29 = sext i32 %28 to i64
  %30 = getelementptr inbounds i8, ptr %27, i64 %29
  %31 = load i8, ptr %30, align 1, !tbaa !32
  %32 = load ptr, ptr %8, align 8, !tbaa !30
  %33 = load i32, ptr %10, align 4, !tbaa !33
  %34 = sext i32 %33 to i64
  %35 = getelementptr inbounds i8, ptr %32, i64 %34
  store i8 %31, ptr %35, align 1, !tbaa !32
  br label %36

36:                                               ; preds = %26
  %37 = load i32, ptr %10, align 4, !tbaa !33
  %38 = add nsw i32 %37, 1
  store i32 %38, ptr %10, align 4, !tbaa !33
  br label %22, !llvm.loop !70

39:                                               ; preds = %22
  %40 = load ptr, ptr %8, align 8, !tbaa !30
  %41 = load i32, ptr %5, align 4, !tbaa !33
  %42 = add nsw i32 %41, 1
  %43 = sext i32 %42 to i64
  %44 = getelementptr inbounds i8, ptr %40, i64 %43
  store i8 0, ptr %44, align 1, !tbaa !32
  %45 = load ptr, ptr %8, align 8, !tbaa !30
  %46 = load i32, ptr %5, align 4, !tbaa !33
  %47 = sext i32 %46 to i64
  %48 = getelementptr inbounds i8, ptr %45, i64 %47
  store i8 0, ptr %48, align 1, !tbaa !32
  %49 = load ptr, ptr %8, align 8, !tbaa !30
  %50 = load i64, ptr %9, align 8, !tbaa !55
  %51 = load ptr, ptr %6, align 8, !tbaa !9
  %52 = call noundef ptr @_Z24cmFortran_yy_scan_bufferPcmPv(ptr noundef %49, i64 noundef %50, ptr noundef %51)
  store ptr %52, ptr %7, align 8, !tbaa !27
  %53 = load ptr, ptr %7, align 8, !tbaa !27
  %54 = icmp ne ptr %53, null
  br i1 %54, label %57, label %55

55:                                               ; preds = %39
  %56 = load ptr, ptr %6, align 8, !tbaa !9
  call void @_ZL14yy_fatal_errorPKcPv(ptr noundef @.str.4, ptr noundef %56) #14
  unreachable

57:                                               ; preds = %39
  %58 = load ptr, ptr %7, align 8, !tbaa !27
  %59 = getelementptr inbounds nuw %struct.yy_buffer_state, ptr %58, i32 0, i32 5
  store i32 1, ptr %59, align 8, !tbaa !58
  %60 = load ptr, ptr %7, align 8, !tbaa !27
  call void @llvm.lifetime.end.p0(i64 4, ptr %10) #12
  call void @llvm.lifetime.end.p0(i64 8, ptr %9) #12
  call void @llvm.lifetime.end.p0(i64 8, ptr %8) #12
  call void @llvm.lifetime.end.p0(i64 8, ptr %7) #12
  ret ptr %60
}