; Function Attrs: mustprogress nounwind uwtable
define dso_local noundef nonnull ptr @_Z23cmFortran_yy_scan_bytesPKciPv(ptr noundef readonly captures(none) %0, i32 noundef %1, ptr noundef captures(none) %2) local_unnamed_addr #1 {
  %4 = add nsw i32 %1, 2
  %5 = sext i32 %4 to i64
  %6 = tail call noalias noundef ptr @malloc(i64 noundef %5) #26
  %.not = icmp eq ptr %6, null
  br i1 %.not, label %12, label %.preheader

.preheader:                                       ; preds = %3
  %7 = icmp sgt i32 %1, 0
  br i1 %7, label %._crit_edge.thread, label %._crit_edge

._crit_edge.thread:                               ; preds = %.preheader
  %8 = zext nneg i32 %1 to i64
  tail call void @llvm.memcpy.p0.p0.i64(ptr nonnull align 1 %6, ptr align 1 %0, i64 %8, i1 false), !tbaa !35
  %9 = zext nneg i32 %1 to i64
  %10 = getelementptr i8, ptr %6, i64 %9
  %11 = getelementptr i8, ptr %10, i64 1
  store i8 0, ptr %11, align 1, !tbaa !35
  store i8 0, ptr %10, align 1, !tbaa !35
  br label %17

12:                                               ; preds = %3
  tail call fastcc void @_ZL14yy_fatal_errorPKcPv(ptr noundef nonnull @.str.3) #27
  unreachable

._crit_edge:                                      ; preds = %.preheader
  %13 = sext i32 %1 to i64
  %14 = getelementptr i8, ptr %6, i64 %13
  %15 = getelementptr i8, ptr %14, i64 1
  store i8 0, ptr %15, align 1, !tbaa !35
  store i8 0, ptr %14, align 1, !tbaa !35
  %16 = icmp ugt i32 %1, -3
  br i1 %16, label %20, label %17

17:                                               ; preds = %._crit_edge.thread, %._crit_edge
  %18 = tail call noalias noundef dereferenceable_or_null(64) ptr @malloc(i64 noundef 64) #26
  %.not27.i = icmp eq ptr %18, null
  br i1 %.not27.i, label %19, label %21

19:                                               ; preds = %17
  tail call fastcc void @_ZL14yy_fatal_errorPKcPv(ptr noundef nonnull @.str.2) #27
  unreachable

20:                                               ; preds = %._crit_edge
  tail call fastcc void @_ZL14yy_fatal_errorPKcPv(ptr noundef nonnull @.str.4) #27
  unreachable

21:                                               ; preds = %17
  %22 = getelementptr inbounds nuw i8, ptr %18, i64 24
  store i32 %1, ptr %22, align 8, !tbaa !25
  %23 = getelementptr inbounds nuw i8, ptr %18, i64 8
  store ptr %6, ptr %23, align 8, !tbaa !27
  %24 = getelementptr inbounds nuw i8, ptr %18, i64 16
  store ptr %6, ptr %24, align 8, !tbaa !31
  %25 = getelementptr inbounds nuw i8, ptr %18, i64 32
  store i32 0, ptr %25, align 8, !tbaa !28
  store ptr null, ptr %18, align 8, !tbaa !34
  %26 = getelementptr inbounds nuw i8, ptr %18, i64 28
  store i32 %1, ptr %26, align 4, !tbaa !29
  %27 = getelementptr inbounds nuw i8, ptr %18, i64 36
  store i32 0, ptr %27, align 4, !tbaa !62
  %28 = getelementptr inbounds nuw i8, ptr %18, i64 40
  store i32 1, ptr %28, align 8, !tbaa !37
  %29 = getelementptr inbounds nuw i8, ptr %18, i64 52
  store i32 0, ptr %29, align 4, !tbaa !55
  %30 = getelementptr inbounds nuw i8, ptr %18, i64 56
  store i32 0, ptr %30, align 8, !tbaa !51
  tail call void @_Z29cmFortran_yy_switch_to_bufferP15yy_buffer_statePv(ptr noundef nonnull %18, ptr noundef %2)
  store i32 1, ptr %25, align 8, !tbaa !28
  ret ptr %18
}